target datalayout = "e-m:e-p270:32:32-p271:32:32-p272:64:64-i64:64-i128:128-f80:128-n8:16:32:64-S128"
target triple = "x86_64-pc-linux-gnu"

%struct.eventop = type { ptr, ptr, ptr, ptr, ptr, ptr, i32, i32, i64 }
%struct.event_base = type { ptr, ptr, %struct.event_changelist, ptr, %struct.evsig_info, i32, i32, i32, i32, i32, i32, i32, i32, i32, i32, i32, i32, ptr, i32, %struct.evcallback_list, ptr, i32, i32, %struct.event_signal_map, %struct.event_signal_map, %struct.min_heap, %struct.timeval, %struct.evutil_monotonic_timer, %struct.timeval, i64, i64, ptr, ptr, i32, ptr, i32, %struct.timeval, i32, i32, i32, [2 x i32], %struct.event, ptr, %struct.evutil_weakrand_state, %struct.once_event_list, [2 x %struct.evwatch_list] }
%struct.event_changelist = type { ptr, i32, i32 }
%struct.evsig_info = type { %struct.event, [2 x i32], i32, i32, [65 x ptr], ptr, i32 }
%struct.evcallback_list = type { ptr, ptr }
%struct.event_signal_map = type { ptr, i32 }
%struct.min_heap = type { ptr, i64, i64 }
%struct.evutil_monotonic_timer = type { i32, %struct.timeval, %struct.timeval }
%struct.timeval = type { i64, i64 }
%struct.event = type { %struct.event_callback, %union.anon.0, i32, i16, i16, ptr, %union.anon.2, %struct.timeval }
%struct.event_callback = type { %struct.anon, i16, i8, i8, %union.anon, ptr }
%struct.anon = type { ptr, ptr }
%union.anon = type { ptr }
%union.anon.0 = type { %struct.anon.1 }
%struct.anon.1 = type { ptr, ptr }
%union.anon.2 = type { %struct.anon.3 }
%struct.anon.3 = type { %struct.anon.4, %struct.timeval }
%struct.anon.4 = type { ptr, ptr }
%struct.evutil_weakrand_state = type { i32 }
%struct.once_event_list = type { ptr }
%struct.evwatch_list = type { ptr, ptr }

@.str = private unnamed_addr constant [15 x i8] c"%s: socketpair\00", align 1
@__func__.evsig_init_ = private unnamed_addr constant [12 x i8] c"evsig_init_\00", align 1
@evsigops = internal constant %struct.eventop { ptr @.str.8, ptr null, ptr @evsig_add, ptr @evsig_del, ptr null, ptr null, i32 0, i32 0, i64 0 }, align 8

; Function Attrs: nounwind uwtable
define hidden i32 @evsig_init_(ptr noundef %0) #0 {
  %2 = alloca ptr, align 8
  store ptr %0, ptr %2, align 8
  %3 = load ptr, ptr %2, align 8
  %4 = getelementptr inbounds nuw %struct.event_base, ptr %3, i32 0, i32 4
  %5 = getelementptr inbounds nuw %struct.evsig_info, ptr %4, i32 0, i32 1
  %6 = getelementptr inbounds [2 x i32], ptr %5, i64 0, i64 0
  %7 = call i32 @evutil_make_internal_pipe_(ptr noundef %6)
  %8 = icmp eq i32 %7, -1
  br i1 %8, label %9, label %10

9:                                                ; preds = %1
  call void (i32, i32, ptr, ...) @event_sock_err(i32 noundef 1, i32 noundef -1, ptr noundef @.str, ptr noundef @__func__.evsig_init_) #7
  unreachable

10:                                               ; preds = %1
  %11 = load ptr, ptr %2, align 8
  %12 = getelementptr inbounds nuw %struct.event_base, ptr %11, i32 0, i32 4
  %13 = getelementptr inbounds nuw %struct.evsig_info, ptr %12, i32 0, i32 5
  %14 = load ptr, ptr %13, align 8
  %15 = icmp ne ptr %14, null
  br i1 %15, label %16, label %21

16:                                               ; preds = %10
  %17 = load ptr, ptr %2, align 8
  %18 = getelementptr inbounds nuw %struct.event_base, ptr %17, i32 0, i32 4
  %19 = getelementptr inbounds nuw %struct.evsig_info, ptr %18, i32 0, i32 5
  %20 = load ptr, ptr %19, align 8
  call void @event_mm_free_(ptr noundef %20)
  br label %21

21:                                               ; preds = %16, %10
  %22 = load ptr, ptr %2, align 8
  %23 = getelementptr inbounds nuw %struct.event_base, ptr %22, i32 0, i32 4
  %24 = getelementptr inbounds nuw %struct.evsig_info, ptr %23, i32 0, i32 5
  store ptr null, ptr %24, align 8
  %25 = load ptr, ptr %2, align 8
  %26 = getelementptr inbounds nuw %struct.event_base, ptr %25, i32 0, i32 4
  %27 = getelementptr inbounds nuw %struct.evsig_info, ptr %26, i32 0, i32 6
  store i32 0, ptr %27, align 8
  %28 = load ptr, ptr %2, align 8
  %29 = getelementptr inbounds nuw %struct.event_base, ptr %28, i32 0, i32 4
  %30 = getelementptr inbounds nuw %struct.evsig_info, ptr %29, i32 0, i32 0
  %31 = load ptr, ptr %2, align 8
  %32 = load ptr, ptr %2, align 8
  %33 = getelementptr inbounds nuw %struct.event_base, ptr %32, i32 0, i32 4
  %34 = getelementptr inbounds nuw %struct.evsig_info, ptr %33, i32 0, i32 1
  %35 = getelementptr inbounds [2 x i32], ptr %34, i64 0, i64 0
  %36 = load i32, ptr %35, align 8
  %37 = load ptr, ptr %2, align 8
  %38 = call i32 @event_assign(ptr noundef %30, ptr noundef %31, i32 noundef %36, i16 noundef signext 18, ptr noundef @evsig_cb, ptr noundef %37)
  %39 = load ptr, ptr %2, align 8
  %40 = getelementptr inbounds nuw %struct.event_base, ptr %39, i32 0, i32 4
  %41 = getelementptr inbounds nuw %struct.evsig_info, ptr %40, i32 0, i32 0
  %42 = getelementptr inbounds nuw %struct.event, ptr %41, i32 0, i32 0
  %43 = getelementptr inbounds nuw %struct.event_callback, ptr %42, i32 0, i32 1
  %44 = load i16, ptr %43, align 8
  %45 = sext i16 %44 to i32
  %46 = or i32 %45, 16
  %47 = trunc i32 %46 to i16
  store i16 %47, ptr %43, align 8
  %48 = load ptr, ptr %2, align 8
  %49 = getelementptr inbounds nuw %struct.event_base, ptr %48, i32 0, i32 4
  %50 = getelementptr inbounds nuw %struct.evsig_info, ptr %49, i32 0, i32 0
  %51 = call i32 @event_priority_set(ptr noundef %50, i32 noundef 0)
  %52 = load ptr, ptr %2, align 8
  %53 = getelementptr inbounds nuw %struct.event_base, ptr %52, i32 0, i32 3
  store ptr @evsigops, ptr %53, align 8
  ret i32 0
}