; Function Attrs: nounwind uwtable
define hidden noundef i32 @evsig_init_(ptr noundef %0) local_unnamed_addr #0 {
  %2 = getelementptr inbounds nuw i8, ptr %0, i64 160
  %3 = tail call i32 @evutil_make_internal_pipe_(ptr noundef nonnull %2) #8
  %4 = icmp eq i32 %3, -1
  br i1 %4, label %5, label %6

5:                                                ; preds = %1
  tail call void (i32, i32, ptr, ...) @event_sock_err(i32 noundef 1, i32 noundef -1, ptr noundef nonnull @.str, ptr noundef nonnull @__func__.evsig_init_) #9
  unreachable

6:                                                ; preds = %1
  %7 = getelementptr inbounds nuw i8, ptr %0, i64 696
  %8 = load ptr, ptr %7, align 8
  %.not = icmp eq ptr %8, null
  br i1 %.not, label %10, label %9

9:                                                ; preds = %6
  tail call void @event_mm_free_(ptr noundef nonnull %8) #8
  br label %10

10:                                               ; preds = %9, %6
  %11 = getelementptr inbounds nuw i8, ptr %0, i64 40
  store ptr null, ptr %7, align 8
  %12 = getelementptr inbounds nuw i8, ptr %0, i64 704
  store i32 0, ptr %12, align 8
  %13 = load i32, ptr %2, align 8
  %14 = tail call i32 @event_assign(ptr noundef nonnull %11, ptr noundef nonnull %0, i32 noundef %13, i16 noundef signext 18, ptr noundef nonnull @evsig_cb, ptr noundef nonnull %0) #8
  %15 = getelementptr inbounds nuw i8, ptr %0, i64 56
  %16 = load i16, ptr %15, align 8
  %17 = or i16 %16, 16
  store i16 %17, ptr %15, align 8
  %18 = tail call i32 @event_priority_set(ptr noundef nonnull %11, i32 noundef 0) #8
  %19 = getelementptr inbounds nuw i8, ptr %0, i64 32
  store ptr @evsigops, ptr %19, align 8
  ret i32 0
}